; Function Attrs: nounwind uwtable
define internal fastcc void @_jumbleWindowDef(ptr noundef %0, ptr noundef nonnull readonly captures(none) %1) unnamed_addr #0 {
  %3 = getelementptr inbounds nuw i8, ptr %1, i64 8
  %4 = load ptr, ptr %3, align 8
  %.not = icmp eq ptr %4, null
  br i1 %.not, label %21, label %5

5:                                                ; preds = %2
  %6 = tail call i64 @strlen(ptr noundef nonnull dereferenceable(1) %4) #8
  %7 = add i64 %6, 1
  %8 = load ptr, ptr %0, align 8
  %9 = getelementptr inbounds nuw i8, ptr %0, i64 8
  %10 = load i64, ptr %9, align 8
  %.not23.i = icmp eq i64 %7, 0
  br i1 %.not23.i, label %AppendJumble.exit, label %.lr.ph.i

.lr.ph.i:                                         ; preds = %5, %14
  %.026.i = phi ptr [ %19, %14 ], [ %4, %5 ]
  %.02125.i = phi i64 [ %20, %14 ], [ %7, %5 ]
  %.02224.i = phi i64 [ %18, %14 ], [ %10, %5 ]
  %11 = icmp ugt i64 %.02224.i, 1023
  br i1 %11, label %12, label %14

12:                                               ; preds = %.lr.ph.i
  %13 = tail call i64 @hash_bytes_extended(ptr noundef %8, i32 noundef 1024, i64 noundef 0) #9
  store i64 %13, ptr %8, align 1
  br label %14

14:                                               ; preds = %12, %.lr.ph.i
  %.1.i = phi i64 [ 8, %12 ], [ %.02224.i, %.lr.ph.i ]
  %15 = sub nuw nsw i64 1024, %.1.i
  %16 = tail call i64 @llvm.umin.i64(i64 %.02125.i, i64 %15)
  %17 = getelementptr inbounds nuw i8, ptr %8, i64 %.1.i
  tail call void @llvm.memcpy.p0.p0.i64(ptr noundef nonnull align 1 dereferenceable(1) %17, ptr noundef nonnull align 1 dereferenceable(1) %.026.i, i64 %16, i1 false)
  %18 = add nuw nsw i64 %16, %.1.i
  %19 = getelementptr inbounds nuw i8, ptr %.026.i, i64 %16
  %20 = sub i64 %.02125.i, %16
  %.not.i = icmp eq i64 %20, 0
  br i1 %.not.i, label %AppendJumble.exit, label %.lr.ph.i, !llvm.loop !7

AppendJumble.exit:                                ; preds = %14, %5
  %.022.lcssa.i = phi i64 [ %10, %5 ], [ %18, %14 ]
  store i64 %.022.lcssa.i, ptr %9, align 8
  br label %21

21:                                               ; preds = %2, %AppendJumble.exit
  %22 = getelementptr inbounds nuw i8, ptr %1, i64 16
  %23 = load ptr, ptr %22, align 8
  %.not20 = icmp eq ptr %23, null
  br i1 %.not20, label %40, label %24

24:                                               ; preds = %21
  %25 = tail call i64 @strlen(ptr noundef nonnull dereferenceable(1) %23) #8
  %26 = add i64 %25, 1
  %27 = load ptr, ptr %0, align 8
  %28 = getelementptr inbounds nuw i8, ptr %0, i64 8
  %29 = load i64, ptr %28, align 8
  %.not23.i21 = icmp eq i64 %26, 0
  br i1 %.not23.i21, label %AppendJumble.exit29, label %.lr.ph.i22

.lr.ph.i22:                                       ; preds = %24, %33
  %.026.i23 = phi ptr [ %38, %33 ], [ %23, %24 ]
  %.02125.i24 = phi i64 [ %39, %33 ], [ %26, %24 ]
  %.02224.i25 = phi i64 [ %37, %33 ], [ %29, %24 ]
  %30 = icmp ugt i64 %.02224.i25, 1023
  br i1 %30, label %31, label %33

31:                                               ; preds = %.lr.ph.i22
  %32 = tail call i64 @hash_bytes_extended(ptr noundef %27, i32 noundef 1024, i64 noundef 0) #9
  store i64 %32, ptr %27, align 1
  br label %33

33:                                               ; preds = %31, %.lr.ph.i22
  %.1.i26 = phi i64 [ 8, %31 ], [ %.02224.i25, %.lr.ph.i22 ]
  %34 = sub nuw nsw i64 1024, %.1.i26
  %35 = tail call i64 @llvm.umin.i64(i64 %.02125.i24, i64 %34)
  %36 = getelementptr inbounds nuw i8, ptr %27, i64 %.1.i26
  tail call void @llvm.memcpy.p0.p0.i64(ptr noundef nonnull align 1 dereferenceable(1) %36, ptr noundef nonnull align 1 dereferenceable(1) %.026.i23, i64 %35, i1 false)
  %37 = add nuw nsw i64 %35, %.1.i26
  %38 = getelementptr inbounds nuw i8, ptr %.026.i23, i64 %35
  %39 = sub i64 %.02125.i24, %35
  %.not.i27 = icmp eq i64 %39, 0
  br i1 %.not.i27, label %AppendJumble.exit29, label %.lr.ph.i22, !llvm.loop !7

AppendJumble.exit29:                              ; preds = %33, %24
  %.022.lcssa.i28 = phi i64 [ %29, %24 ], [ %37, %33 ]
  store i64 %.022.lcssa.i28, ptr %28, align 8
  br label %40

40:                                               ; preds = %AppendJumble.exit29, %21
  %41 = getelementptr inbounds nuw i8, ptr %1, i64 24
  %42 = load ptr, ptr %41, align 8
  tail call fastcc void @_jumbleNode(ptr noundef %0, ptr noundef %42)
  %43 = getelementptr inbounds nuw i8, ptr %1, i64 32
  %44 = load ptr, ptr %43, align 8
  tail call fastcc void @_jumbleNode(ptr noundef %0, ptr noundef %44)
  %45 = getelementptr inbounds nuw i8, ptr %1, i64 40
  %46 = load ptr, ptr %0, align 8
  %47 = getelementptr inbounds nuw i8, ptr %0, i64 8
  %48 = load i64, ptr %47, align 8
  br label %.lr.ph.i30

.lr.ph.i30:                                       ; preds = %52, %40
  %.026.i31 = phi ptr [ %57, %52 ], [ %45, %40 ]
  %.02125.i32 = phi i64 [ %58, %52 ], [ 4, %40 ]
  %.02224.i33 = phi i64 [ %56, %52 ], [ %48, %40 ]
  %49 = icmp ugt i64 %.02224.i33, 1023
  br i1 %49, label %50, label %52

50:                                               ; preds = %.lr.ph.i30
  %51 = tail call i64 @hash_bytes_extended(ptr noundef %46, i32 noundef 1024, i64 noundef 0) #9
  store i64 %51, ptr %46, align 1
  br label %52

52:                                               ; preds = %50, %.lr.ph.i30
  %.1.i34 = phi i64 [ 8, %50 ], [ %.02224.i33, %.lr.ph.i30 ]
  %53 = sub nuw nsw i64 1024, %.1.i34
  %54 = tail call i64 @llvm.umin.i64(i64 %.02125.i32, i64 %53)
  %55 = getelementptr inbounds nuw i8, ptr %46, i64 %.1.i34
  tail call void @llvm.memcpy.p0.p0.i64(ptr noundef nonnull align 1 dereferenceable(1) %55, ptr noundef nonnull align 1 dereferenceable(1) %.026.i31, i64 %54, i1 false)
  %56 = add nuw nsw i64 %54, %.1.i34
  %57 = getelementptr inbounds nuw i8, ptr %.026.i31, i64 %54
  %58 = sub i64 %.02125.i32, %54
  %.not.i35 = icmp eq i64 %58, 0
  br i1 %.not.i35, label %AppendJumble.exit37, label %.lr.ph.i30, !llvm.loop !7

AppendJumble.exit37:                              ; preds = %52
  store i64 %56, ptr %47, align 8
  %59 = getelementptr inbounds nuw i8, ptr %1, i64 48
  %60 = load ptr, ptr %59, align 8
  tail call fastcc void @_jumbleNode(ptr noundef nonnull %0, ptr noundef %60)
  %61 = getelementptr inbounds nuw i8, ptr %1, i64 56
  %62 = load ptr, ptr %61, align 8
  tail call fastcc void @_jumbleNode(ptr noundef nonnull %0, ptr noundef %62)
  ret void
}